; Function Attrs: mustprogress uwtable
define noundef double @_ZN8QuantLib13BondFunctions8durationERKNS_4BondEdRKNS_10DayCounterENS_11CompoundingENS_9FrequencyENS_8Duration4TypeENS_4DateE(ptr noundef nonnull align 8 dereferenceable(248) %bond, double noundef %yield, ptr nocapture noundef nonnull readonly align 8 dereferenceable(16) %dayCounter, i32 noundef %compounding, i32 noundef %frequency, i32 noundef %type, i64 %settlement.coerce) local_unnamed_addr #3 align 2 personality ptr @__gxx_personality_v0 {
entry:
  %y = alloca %"class.QuantLib::InterestRate", align 8
  %agg.tmp = alloca %"class.QuantLib::DayCounter", align 8
  call void @llvm.lifetime.start.p0(i64 40, ptr nonnull %y) #16
  %0 = load ptr, ptr %dayCounter, align 8, !tbaa !25
  store ptr %0, ptr %agg.tmp, align 8, !tbaa !25
  %pn.i.i = getelementptr inbounds nuw i8, ptr %agg.tmp, i64 8
  %pn3.i.i = getelementptr inbounds nuw i8, ptr %dayCounter, i64 8
  %1 = load ptr, ptr %pn3.i.i, align 8, !tbaa !18
  store ptr %1, ptr %pn.i.i, align 8, !tbaa !18
  %cmp.not.i.i.i = icmp eq ptr %1, null
  br i1 %cmp.not.i.i.i, label %_ZN8QuantLib10DayCounterC2ERKS0_.exit, label %if.then.i.i.i

if.then.i.i.i:                                    ; preds = %entry
  %use_count_.i.i.i.i = getelementptr inbounds nuw i8, ptr %1, i64 8
  %2 = atomicrmw add ptr %use_count_.i.i.i.i, i32 1 monotonic, align 4
  br label %_ZN8QuantLib10DayCounterC2ERKS0_.exit

_ZN8QuantLib10DayCounterC2ERKS0_.exit:            ; preds = %entry, %if.then.i.i.i
  invoke void @_ZN8QuantLib12InterestRateC1EdNS_10DayCounterENS_11CompoundingENS_9FrequencyE(ptr noundef nonnull align 8 dereferenceable(40) %y, double noundef %yield, ptr noundef nonnull %agg.tmp, i32 noundef %compounding, i32 noundef %frequency)
          to label %invoke.cont unwind label %lpad

invoke.cont:                                      ; preds = %_ZN8QuantLib10DayCounterC2ERKS0_.exit
  %3 = load ptr, ptr %pn.i.i, align 8, !tbaa !18
  %cmp.not.i.i.i3 = icmp eq ptr %3, null
  br i1 %cmp.not.i.i.i3, label %_ZN8QuantLib10DayCounterD2Ev.exit, label %if.then.i.i.i4

if.then.i.i.i4:                                   ; preds = %invoke.cont
  %use_count_.i.i.i.i5 = getelementptr inbounds nuw i8, ptr %3, i64 8
  %4 = atomicrmw sub ptr %use_count_.i.i.i.i5, i32 1 acq_rel, align 4
  %cmp.i.i.i.i = icmp eq i32 %4, 1
  br i1 %cmp.i.i.i.i, label %if.then.i.i.i.i, label %_ZN8QuantLib10DayCounterD2Ev.exit

if.then.i.i.i.i:                                  ; preds = %if.then.i.i.i4
  %vtable.i.i.i.i = load ptr, ptr %3, align 8, !tbaa !8
  %vfn.i.i.i.i = getelementptr inbounds i8, ptr %vtable.i.i.i.i, i64 16
  %5 = load ptr, ptr %vfn.i.i.i.i, align 8
  invoke void %5(ptr noundef nonnull align 8 dereferenceable(16) %3)
          to label %.noexc.i.i.i unwind label %terminate.lpad.i.i.i

.noexc.i.i.i:                                     ; preds = %if.then.i.i.i.i
  %weak_count_.i.i.i.i.i = getelementptr inbounds nuw i8, ptr %3, i64 12
  %6 = atomicrmw sub ptr %weak_count_.i.i.i.i.i, i32 1 acq_rel, align 4
  %cmp.i.i.i.i.i = icmp eq i32 %6, 1
  br i1 %cmp.i.i.i.i.i, label %if.then.i.i.i.i.i, label %_ZN8QuantLib10DayCounterD2Ev.exit

if.then.i.i.i.i.i:                                ; preds = %.noexc.i.i.i
  %vtable.i.i.i.i.i = load ptr, ptr %3, align 8, !tbaa !8
  %vfn.i.i.i.i.i = getelementptr inbounds i8, ptr %vtable.i.i.i.i.i, i64 24
  %7 = load ptr, ptr %vfn.i.i.i.i.i, align 8
  invoke void %7(ptr noundef nonnull align 8 dereferenceable(16) %3)
          to label %_ZN8QuantLib10DayCounterD2Ev.exit unwind label %terminate.lpad.i.i.i

terminate.lpad.i.i.i:                             ; preds = %if.then.i.i.i.i.i, %if.then.i.i.i.i
  %8 = landingpad { ptr, i32 }
          catch ptr null
  %9 = extractvalue { ptr, i32 } %8, 0
  call void @__clang_call_terminate(ptr %9) #17
  unreachable

_ZN8QuantLib10DayCounterD2Ev.exit:                ; preds = %invoke.cont, %if.then.i.i.i4, %.noexc.i.i.i, %if.then.i.i.i.i.i
  %call = invoke noundef double @_ZN8QuantLib13BondFunctions8durationERKNS_4BondERKNS_12InterestRateENS_8Duration4TypeENS_4DateE(ptr noundef nonnull align 8 dereferenceable(248) %bond, ptr noundef nonnull align 8 dereferenceable(40) %y, i32 noundef %type, i64 %settlement.coerce)
          to label %invoke.cont4 unwind label %lpad3

invoke.cont4:                                     ; preds = %_ZN8QuantLib10DayCounterD2Ev.exit
  %pn.i.i.i = getelementptr inbounds nuw i8, ptr %y, i64 16
  %10 = load ptr, ptr %pn.i.i.i, align 8, !tbaa !18
  %cmp.not.i.i.i.i = icmp eq ptr %10, null
  br i1 %cmp.not.i.i.i.i, label %_ZN8QuantLib12InterestRateD2Ev.exit, label %if.then.i.i.i.i6

if.then.i.i.i.i6:                                 ; preds = %invoke.cont4
  %use_count_.i.i.i.i.i = getelementptr inbounds nuw i8, ptr %10, i64 8
  %11 = atomicrmw sub ptr %use_count_.i.i.i.i.i, i32 1 acq_rel, align 4
  %cmp.i.i.i.i.i7 = icmp eq i32 %11, 1
  br i1 %cmp.i.i.i.i.i7, label %if.then.i.i.i.i.i8, label %_ZN8QuantLib12InterestRateD2Ev.exit

if.then.i.i.i.i.i8:                               ; preds = %if.then.i.i.i.i6
  %vtable.i.i.i.i.i9 = load ptr, ptr %10, align 8, !tbaa !8
  %vfn.i.i.i.i.i10 = getelementptr inbounds i8, ptr %vtable.i.i.i.i.i9, i64 16
  %12 = load ptr, ptr %vfn.i.i.i.i.i10, align 8
  invoke void %12(ptr noundef nonnull align 8 dereferenceable(16) %10)
          to label %.noexc.i.i.i.i unwind label %terminate.lpad.i.i.i.i

.noexc.i.i.i.i:                                   ; preds = %if.then.i.i.i.i.i8
  %weak_count_.i.i.i.i.i.i = getelementptr inbounds nuw i8, ptr %10, i64 12
  %13 = atomicrmw sub ptr %weak_count_.i.i.i.i.i.i, i32 1 acq_rel, align 4
  %cmp.i.i.i.i.i.i = icmp eq i32 %13, 1
  br i1 %cmp.i.i.i.i.i.i, label %if.then.i.i.i.i.i.i, label %_ZN8QuantLib12InterestRateD2Ev.exit

if.then.i.i.i.i.i.i:                              ; preds = %.noexc.i.i.i.i
  %vtable.i.i.i.i.i.i = load ptr, ptr %10, align 8, !tbaa !8
  %vfn.i.i.i.i.i.i = getelementptr inbounds i8, ptr %vtable.i.i.i.i.i.i, i64 24
  %14 = load ptr, ptr %vfn.i.i.i.i.i.i, align 8
  invoke void %14(ptr noundef nonnull align 8 dereferenceable(16) %10)
          to label %_ZN8QuantLib12InterestRateD2Ev.exit unwind label %terminate.lpad.i.i.i.i

terminate.lpad.i.i.i.i:                           ; preds = %if.then.i.i.i.i.i.i, %if.then.i.i.i.i.i8
  %15 = landingpad { ptr, i32 }
          catch ptr null
  %16 = extractvalue { ptr, i32 } %15, 0
  call void @__clang_call_terminate(ptr %16) #17
  unreachable

_ZN8QuantLib12InterestRateD2Ev.exit:              ; preds = %invoke.cont4, %if.then.i.i.i.i6, %.noexc.i.i.i.i, %if.then.i.i.i.i.i.i
  call void @llvm.lifetime.end.p0(i64 40, ptr nonnull %y) #16
  ret double %call

lpad:                                             ; preds = %_ZN8QuantLib10DayCounterC2ERKS0_.exit
  %17 = landingpad { ptr, i32 }
          cleanup
  call void @_ZN8QuantLib10DayCounterD2Ev(ptr noundef nonnull align 8 dereferenceable(16) %agg.tmp) #16
  br label %ehcleanup

lpad3:                                            ; preds = %_ZN8QuantLib10DayCounterD2Ev.exit
  %18 = landingpad { ptr, i32 }
          cleanup
  call void @_ZN8QuantLib12InterestRateD2Ev(ptr noundef nonnull align 8 dereferenceable(40) %y) #16
  br label %ehcleanup

ehcleanup:                                        ; preds = %lpad3, %lpad
  %.pn = phi { ptr, i32 } [ %18, %lpad3 ], [ %17, %lpad ]
  call void @llvm.lifetime.end.p0(i64 40, ptr nonnull %y) #16
  resume { ptr, i32 } %.pn
}